target datalayout = "e-m:e-p270:32:32-p271:32:32-p272:64:64-i64:64-i128:128-f80:128-n8:16:32:64-S128"
target triple = "x86_64-pc-linux-gnu"

%struct.json_dumper = type { ptr, ptr, i32, i32, i32, i32, [1100 x i8] }
%struct.__va_list_tag = type { i32, i32, ptr, ptr }

@stdout = external global ptr, align 8
@dumper = internal global %struct.json_dumper zeroinitializer, align 8
@.str.3 = private unnamed_addr constant [6 x i8] c"error\00", align 1
@.str.4 = private unnamed_addr constant [5 x i8] c"code\00", align 1
@.str.5 = private unnamed_addr constant [3 x i8] c"%d\00", align 1
@.str.6 = private unnamed_addr constant [8 x i8] c"message\00", align 1
@.str.7 = private unnamed_addr constant [5 x i8] c"data\00", align 1
@.str.8 = private unnamed_addr constant [8 x i8] c"jsonrpc\00", align 1
@.str.9 = private unnamed_addr constant [4 x i8] c"2.0\00", align 1
@.str.10 = private unnamed_addr constant [3 x i8] c"id\00", align 1

; Function Attrs: null_pointer_is_valid sspstrong uwtable
define internal void @sharkd_json_response_close() #0 {
  call void @json_dumper_end_object(ptr noundef @dumper)
  %1 = call zeroext i1 @json_dumper_finish(ptr noundef @dumper)
  %2 = load ptr, ptr @stdout, align 8
  %3 = call i32 @fflush(ptr noundef %2)
  ret void
}

; Function Attrs: null_pointer_is_valid sspstrong uwtable
define internal void @sharkd_json_object_close() #0 {
  call void @json_dumper_end_object(ptr noundef @dumper)
  ret void
}

; Function Attrs: null_pointer_is_valid sspstrong uwtable
define internal void @sharkd_json_value_string(ptr noundef %0, ptr noundef %1) #0 {
  %3 = alloca ptr, align 8
  %4 = alloca ptr, align 8
  store ptr %0, ptr %3, align 8
  store ptr %1, ptr %4, align 8
  %5 = load ptr, ptr %3, align 8
  %6 = icmp ne ptr %5, null
  br i1 %6, label %7, label %9

7:                                                ; preds = %2
  %8 = load ptr, ptr %3, align 8
  call void @json_dumper_set_member_name(ptr noundef @dumper, ptr noundef %8)
  br label %9

9:                                                ; preds = %7, %2
  %10 = load ptr, ptr %4, align 8
  call void @json_dumper_value_string(ptr noundef @dumper, ptr noundef %10)
  ret void
}

; Function Attrs: null_pointer_is_valid sspstrong uwtable
define internal void @sharkd_json_object_open(ptr noundef %0) #0 {
  %2 = alloca ptr, align 8
  store ptr %0, ptr %2, align 8
  %3 = load ptr, ptr %2, align 8
  %4 = icmp ne ptr %3, null
  br i1 %4, label %5, label %7

5:                                                ; preds = %1
  %6 = load ptr, ptr %2, align 8
  call void @json_dumper_set_member_name(ptr noundef @dumper, ptr noundef %6)
  br label %7

7:                                                ; preds = %5, %1
  call void @json_dumper_begin_object(ptr noundef @dumper)
  ret void
}

; Function Attrs: null_pointer_is_valid sspstrong uwtable
define internal void @sharkd_json_response_open(i32 noundef %0) #0 {
  %2 = alloca i32, align 4
  store i32 %0, ptr %2, align 4
  call void @json_dumper_begin_object(ptr noundef @dumper)
  call void @sharkd_json_value_string(ptr noundef @.str.8, ptr noundef @.str.9)
  %3 = load i32, ptr %2, align 4
  call void (ptr, ptr, ...) @sharkd_json_value_anyf(ptr noundef @.str.10, ptr noundef @.str.5, i32 noundef %3)
  ret void
}

; Function Attrs: null_pointer_is_valid sspstrong uwtable
define internal void @sharkd_json_error(i32 noundef %0, i32 noundef %1, ptr noundef %2, ptr noundef %3, ...) #0 {
  %5 = alloca i32, align 4
  %6 = alloca i32, align 4
  %7 = alloca ptr, align 8
  %8 = alloca ptr, align 8
  %9 = alloca [1 x %struct.__va_list_tag], align 16
  %10 = alloca ptr, align 8
  store i32 %0, ptr %5, align 4
  store i32 %1, ptr %6, align 4
  store ptr %2, ptr %7, align 8
  store ptr %3, ptr %8, align 8
  %11 = load i32, ptr %5, align 4
  call void @sharkd_json_response_open(i32 noundef %11)
  call void @sharkd_json_object_open(ptr noundef @.str.3)
  %12 = load i32, ptr %6, align 4
  call void (ptr, ptr, ...) @sharkd_json_value_anyf(ptr noundef @.str.4, ptr noundef @.str.5, i32 noundef %12)
  %13 = load ptr, ptr %8, align 8
  %14 = icmp ne ptr %13, null
  br i1 %14, label %15, label %23

15:                                               ; preds = %4
  call void @llvm.lifetime.start.p0(i64 24, ptr %9) #21
  %16 = getelementptr inbounds [1 x %struct.__va_list_tag], ptr %9, i64 0, i64 0
  call void @llvm.va_start.p0(ptr %16)
  call void @llvm.lifetime.start.p0(i64 8, ptr %10) #21
  %17 = load ptr, ptr %8, align 8
  %18 = getelementptr inbounds [1 x %struct.__va_list_tag], ptr %9, i64 0, i64 0
  %19 = call noalias ptr @wmem_strdup_vprintf(ptr noundef null, ptr noundef %17, ptr noundef %18)
  store ptr %19, ptr %10, align 8
  %20 = getelementptr inbounds [1 x %struct.__va_list_tag], ptr %9, i64 0, i64 0
  call void @llvm.va_end.p0(ptr %20)
  %21 = load ptr, ptr %10, align 8
  call void @sharkd_json_value_string(ptr noundef @.str.6, ptr noundef %21)
  %22 = load ptr, ptr %10, align 8
  call void @g_free(ptr noundef %22)
  call void @llvm.lifetime.end.p0(i64 8, ptr %10) #21
  call void @llvm.lifetime.end.p0(i64 24, ptr %9) #21
  br label %23

23:                                               ; preds = %15, %4
  call void @sharkd_json_object_close()
  %24 = load ptr, ptr %7, align 8
  %25 = icmp ne ptr %24, null
  br i1 %25, label %26, label %28

26:                                               ; preds = %23
  %27 = load ptr, ptr %7, align 8
  call void @sharkd_json_value_string(ptr noundef @.str.7, ptr noundef %27)
  br label %28

28:                                               ; preds = %26, %23
  call void @sharkd_json_response_close()
  ret void
}