; Function Attrs: null_pointer_is_valid sspstrong uwtable
define internal void @sharkd_json_error(i32 noundef %0, i32 noundef range(i32 -32603, -2000) %1, ptr readnone captures(none) %2, ptr noundef %3, ...) unnamed_addr #0 {
  %5 = alloca [1 x %struct.__va_list_tag], align 16
  tail call void @json_dumper_begin_object(ptr noundef nonnull @dumper)
  tail call void @json_dumper_set_member_name(ptr noundef nonnull @dumper, ptr noundef nonnull @.str.8)
  tail call void @json_dumper_value_string(ptr noundef nonnull @dumper, ptr noundef nonnull @.str.9)
  tail call void (ptr, ptr, ...) @sharkd_json_value_anyf(ptr noundef nonnull @.str.10, ptr noundef nonnull @.str.5, i32 noundef %0)
  tail call void @json_dumper_set_member_name(ptr noundef nonnull @dumper, ptr noundef nonnull @.str.3)
  tail call void @json_dumper_begin_object(ptr noundef nonnull @dumper)
  tail call void (ptr, ptr, ...) @sharkd_json_value_anyf(ptr noundef nonnull @.str.4, ptr noundef nonnull @.str.5, i32 noundef %1)
  %.not = icmp eq ptr %3, null
  br i1 %.not, label %8, label %6

6:                                                ; preds = %4
  call void @llvm.lifetime.start.p0(i64 24, ptr nonnull %5) #17
  call void @llvm.va_start.p0(ptr nonnull %5)
  %7 = call noalias ptr @wmem_strdup_vprintf(ptr noundef null, ptr noundef nonnull %3, ptr noundef nonnull %5)
  call void @llvm.va_end.p0(ptr nonnull %5)
  call void @json_dumper_set_member_name(ptr noundef nonnull @dumper, ptr noundef nonnull @.str.6)
  call void @json_dumper_value_string(ptr noundef nonnull @dumper, ptr noundef %7)
  call void @g_free(ptr noundef %7)
  call void @llvm.lifetime.end.p0(i64 24, ptr nonnull %5) #17
  br label %8

8:                                                ; preds = %6, %4
  call void @json_dumper_end_object(ptr noundef nonnull @dumper)
  call void @json_dumper_end_object(ptr noundef nonnull @dumper)
  %9 = call zeroext i1 @json_dumper_finish(ptr noundef nonnull @dumper)
  %10 = load ptr, ptr @stdout, align 8
  %11 = call i32 @fflush(ptr noundef %10)
  ret void
}